; Function Attrs: mustprogress nounwind uwtable
define internal noundef zeroext i1 @_ZN4llvm20MCAsmParserExtension15HandleDirectiveIN12_GLOBAL__N_112ELFAsmParserETnMT_FbNS_9StringRefENS_5SMLocEEXadL_ZNS3_22ParseDirectivePreviousES5_S6_EEEEbPS0_S5_S6_(ptr noundef readonly captures(none) %0, ptr readnone captures(none) %1, i64 %2, ptr readnone captures(none) %3) #0 align 2 {
  %5 = alloca %"class.llvm::Twine", align 8
  call void @llvm.lifetime.start.p0(i64 40, ptr nonnull %5)
  %6 = getelementptr inbounds nuw i8, ptr %0, i64 8
  %7 = load ptr, ptr %6, align 8
  %8 = load ptr, ptr %7, align 8
  %9 = getelementptr inbounds nuw i8, ptr %8, i64 56
  %10 = load ptr, ptr %9, align 8
  %11 = tail call noundef nonnull align 8 dereferenceable(288) ptr %10(ptr noundef nonnull align 8 dereferenceable(34) %7) #15
  %12 = getelementptr inbounds nuw i8, ptr %11, i64 120
  %13 = tail call noundef zeroext i1 @_ZNK4llvm15SmallVectorBaseIjE5emptyEv(ptr noundef nonnull align 8 dereferenceable(16) %12) #15
  br i1 %13, label %_ZNK4llvm10MCStreamer18getPreviousSectionEv.exit.thread.i, label %_ZNK4llvm10MCStreamer18getPreviousSectionEv.exit.i

_ZNK4llvm10MCStreamer18getPreviousSectionEv.exit.i: ; preds = %4
  %14 = load ptr, ptr %12, align 8
  %15 = tail call noundef i64 @_ZNK4llvm15SmallVectorBaseIjE4sizeEv(ptr noundef nonnull align 8 dereferenceable(16) %12) #15
  %16 = getelementptr inbounds %"struct.std::pair.163", ptr %14, i64 %15
  %17 = getelementptr inbounds i8, ptr %16, i64 -16
  %.sroa.0.0.copyload.i.i = load ptr, ptr %17, align 8
  %18 = icmp eq ptr %.sroa.0.0.copyload.i.i, null
  br i1 %18, label %_ZNK4llvm10MCStreamer18getPreviousSectionEv.exit.thread.i, label %23

_ZNK4llvm10MCStreamer18getPreviousSectionEv.exit.thread.i: ; preds = %_ZNK4llvm10MCStreamer18getPreviousSectionEv.exit.i, %4
  %19 = getelementptr inbounds nuw i8, ptr %5, i64 32
  %20 = getelementptr inbounds nuw i8, ptr %5, i64 33
  store i8 1, ptr %20, align 1
  store ptr @.str.90, ptr %5, align 8
  store i8 3, ptr %19, align 8
  %21 = load ptr, ptr %6, align 8
  %22 = call noundef zeroext i1 @_ZN4llvm11MCAsmParser8TokErrorERKNS_5TwineENS_7SMRangeE(ptr noundef nonnull align 8 dereferenceable(34) %21, ptr noundef nonnull align 8 dereferenceable(34) %5, ptr null, ptr null) #15
  br label %_ZN12_GLOBAL__N_112ELFAsmParser22ParseDirectivePreviousEN4llvm9StringRefENS1_5SMLocE.exit

23:                                               ; preds = %_ZNK4llvm10MCStreamer18getPreviousSectionEv.exit.i
  %.sroa.3.0..sroa_idx.i.i = getelementptr inbounds i8, ptr %16, i64 -8
  %.sroa.3.0.copyload.i.i = load i32, ptr %.sroa.3.0..sroa_idx.i.i, align 8
  %24 = load ptr, ptr %6, align 8
  %25 = load ptr, ptr %24, align 8
  %26 = getelementptr inbounds nuw i8, ptr %25, i64 56
  %27 = load ptr, ptr %26, align 8
  %28 = tail call noundef nonnull align 8 dereferenceable(288) ptr %27(ptr noundef nonnull align 8 dereferenceable(34) %24) #15
  %29 = load ptr, ptr %28, align 8
  %30 = getelementptr inbounds nuw i8, ptr %29, i64 168
  %31 = load ptr, ptr %30, align 8
  tail call void %31(ptr noundef nonnull align 8 dereferenceable(288) %28, ptr noundef nonnull %.sroa.0.0.copyload.i.i, i32 noundef %.sroa.3.0.copyload.i.i) #15
  br label %_ZN12_GLOBAL__N_112ELFAsmParser22ParseDirectivePreviousEN4llvm9StringRefENS1_5SMLocE.exit

_ZN12_GLOBAL__N_112ELFAsmParser22ParseDirectivePreviousEN4llvm9StringRefENS1_5SMLocE.exit: ; preds = %_ZNK4llvm10MCStreamer18getPreviousSectionEv.exit.thread.i, %23
  %.0.i = phi i1 [ %22, %_ZNK4llvm10MCStreamer18getPreviousSectionEv.exit.thread.i ], [ false, %23 ]
  call void @llvm.lifetime.end.p0(i64 40, ptr nonnull %5)
  ret i1 %.0.i
}